target datalayout = "e-m:e-p270:32:32-p271:32:32-p272:64:64-i64:64-i128:128-f80:128-n8:16:32:64-S128"
target triple = "x86_64-pc-linux-gnu"

%struct.Aig_Obj_t_ = type { %union.anon, ptr, ptr, i64, i32, i32, %union.anon.0 }
%union.anon = type { ptr }
%union.anon.0 = type { ptr }
%struct.Fra_Sml_t_ = type { ptr, i32, i32, i32, i32, i32, i32, i32, i32, [0 x i32] }
%struct.Aig_Man_t_ = type { ptr, ptr, ptr, ptr, ptr, ptr, ptr, %struct.Aig_Obj_t_, i32, i32, i32, i32, i32, i32, [7 x i32], i32, ptr, i32, ptr, i32, ptr, i32, i32, i32, ptr, i32, i32, i32, i32, i32, ptr, ptr, i32, ptr, ptr, i32, ptr, ptr, i32, i32, i32, ptr, ptr, ptr, ptr, ptr, ptr, ptr, ptr, ptr, ptr, ptr, ptr, ptr, ptr, i32, ptr, ptr, ptr, ptr, i32, i64, i64, i64, ptr, ptr }
%struct.Vec_Ptr_t_ = type { i32, i32, ptr }
%struct.Vec_Str_t_ = type { i32, i32, ptr }

@.str.9 = private unnamed_addr constant [100 x i8] c"File \22%s\22: The number of binary digits (%d) is not divisible by the number of primary inputs (%d).\0A\00", align 1

; Function Attrs: inlinehint nounwind uwtable
define internal ptr @Fra_ObjSim(ptr noundef %0, i32 noundef %1) #2 {
  %3 = alloca ptr, align 8
  %4 = alloca i32, align 4
  store ptr %0, ptr %3, align 8, !tbaa !35
  store i32 %1, ptr %4, align 4, !tbaa !8
  %5 = load ptr, ptr %3, align 8, !tbaa !35
  %6 = getelementptr inbounds nuw %struct.Fra_Sml_t_, ptr %5, i32 0, i32 9
  %7 = getelementptr inbounds [0 x i32], ptr %6, i64 0, i64 0
  %8 = load ptr, ptr %3, align 8, !tbaa !35
  %9 = getelementptr inbounds nuw %struct.Fra_Sml_t_, ptr %8, i32 0, i32 4
  %10 = load i32, ptr %9, align 4, !tbaa !32
  %11 = load i32, ptr %4, align 4, !tbaa !8
  %12 = mul nsw i32 %10, %11
  %13 = sext i32 %12 to i64
  %14 = getelementptr inbounds i32, ptr %7, i64 %13
  ret ptr %14
}

; Function Attrs: inlinehint nounwind uwtable
define internal i32 @Vec_PtrSize(ptr noundef %0) #2 {
  %2 = alloca ptr, align 8
  store ptr %0, ptr %2, align 8, !tbaa !54
  %3 = load ptr, ptr %2, align 8, !tbaa !54
  %4 = getelementptr inbounds nuw %struct.Vec_Ptr_t_, ptr %3, i32 0, i32 1
  %5 = load i32, ptr %4, align 4, !tbaa !55
  ret i32 %5
}

; Function Attrs: nounwind uwtable
define i32 @Fra_SmlNodeIsZero(ptr noundef %0, ptr noundef %1) #0 {
  %3 = alloca i32, align 4
  %4 = alloca ptr, align 8
  %5 = alloca ptr, align 8
  %6 = alloca ptr, align 8
  %7 = alloca i32, align 4
  %8 = alloca i32, align 4
  store ptr %0, ptr %4, align 8, !tbaa !35
  store ptr %1, ptr %5, align 8, !tbaa !3
  call void @llvm.lifetime.start.p0(i64 8, ptr %6) #8
  call void @llvm.lifetime.start.p0(i64 4, ptr %7) #8
  %9 = load ptr, ptr %4, align 8, !tbaa !35
  %10 = load ptr, ptr %5, align 8, !tbaa !3
  %11 = getelementptr inbounds nuw %struct.Aig_Obj_t_, ptr %10, i32 0, i32 5
  %12 = load i32, ptr %11, align 4, !tbaa !27
  %13 = call ptr @Fra_ObjSim(ptr noundef %9, i32 noundef %12)
  store ptr %13, ptr %6, align 8, !tbaa !29
  %14 = load ptr, ptr %4, align 8, !tbaa !35
  %15 = getelementptr inbounds nuw %struct.Fra_Sml_t_, ptr %14, i32 0, i32 5
  %16 = load i32, ptr %15, align 8, !tbaa !30
  store i32 %16, ptr %7, align 4, !tbaa !8
  br label %17

17:                                               ; preds = %32, %2
  %18 = load i32, ptr %7, align 4, !tbaa !8
  %19 = load ptr, ptr %4, align 8, !tbaa !35
  %20 = getelementptr inbounds nuw %struct.Fra_Sml_t_, ptr %19, i32 0, i32 4
  %21 = load i32, ptr %20, align 4, !tbaa !32
  %22 = icmp slt i32 %18, %21
  br i1 %22, label %23, label %35

23:                                               ; preds = %17
  %24 = load ptr, ptr %6, align 8, !tbaa !29
  %25 = load i32, ptr %7, align 4, !tbaa !8
  %26 = sext i32 %25 to i64
  %27 = getelementptr inbounds i32, ptr %24, i64 %26
  %28 = load i32, ptr %27, align 4, !tbaa !8
  %29 = icmp ne i32 %28, 0
  br i1 %29, label %30, label %31

30:                                               ; preds = %23
  store i32 0, ptr %3, align 4
  store i32 1, ptr %8, align 4
  br label %36

31:                                               ; preds = %23
  br label %32

32:                                               ; preds = %31
  %33 = load i32, ptr %7, align 4, !tbaa !8
  %34 = add nsw i32 %33, 1
  store i32 %34, ptr %7, align 4, !tbaa !8
  br label %17, !llvm.loop !39

35:                                               ; preds = %17
  store i32 1, ptr %3, align 4
  store i32 1, ptr %8, align 4
  br label %36

36:                                               ; preds = %35, %30
  call void @llvm.lifetime.end.p0(i64 4, ptr %7) #8
  call void @llvm.lifetime.end.p0(i64 8, ptr %6) #8
  %37 = load i32, ptr %3, align 4
  ret i32 %37
}

; Function Attrs: inlinehint nounwind uwtable
define internal ptr @Vec_PtrEntry(ptr noundef %0, i32 noundef %1) #2 {
  %3 = alloca ptr, align 8
  %4 = alloca i32, align 4
  store ptr %0, ptr %3, align 8, !tbaa !54
  store i32 %1, ptr %4, align 4, !tbaa !8
  %5 = load ptr, ptr %3, align 8, !tbaa !54
  %6 = getelementptr inbounds nuw %struct.Vec_Ptr_t_, ptr %5, i32 0, i32 2
  %7 = load ptr, ptr %6, align 8, !tbaa !57
  %8 = load i32, ptr %4, align 4, !tbaa !8
  %9 = sext i32 %8 to i64
  %10 = getelementptr inbounds ptr, ptr %7, i64 %9
  %11 = load ptr, ptr %10, align 8, !tbaa !58
  ret ptr %11
}

; Function Attrs: inlinehint nounwind uwtable
define internal i32 @Aig_ManRegNum(ptr noundef %0) #2 {
  %2 = alloca ptr, align 8
  store ptr %0, ptr %2, align 8, !tbaa !52
  %3 = load ptr, ptr %2, align 8, !tbaa !52
  %4 = getelementptr inbounds nuw %struct.Aig_Man_t_, ptr %3, i32 0, i32 8
  %5 = load i32, ptr %4, align 8, !tbaa !53
  ret i32 %5
}

; Function Attrs: inlinehint nounwind uwtable
define internal i32 @Aig_ManCoNum(ptr noundef %0) #2 {
  %2 = alloca ptr, align 8
  store ptr %0, ptr %2, align 8, !tbaa !52
  %3 = load ptr, ptr %2, align 8, !tbaa !52
  %4 = getelementptr inbounds nuw %struct.Aig_Man_t_, ptr %3, i32 0, i32 14
  %5 = getelementptr inbounds [7 x i32], ptr %4, i64 0, i64 3
  %6 = load i32, ptr %5, align 4, !tbaa !8
  ret i32 %6
}

; Function Attrs: inlinehint nounwind uwtable
define internal i32 @Aig_ManObjNumMax(ptr noundef %0) #2 {
  %2 = alloca ptr, align 8
  store ptr %0, ptr %2, align 8, !tbaa !52
  %3 = load ptr, ptr %2, align 8, !tbaa !52
  %4 = getelementptr inbounds nuw %struct.Aig_Man_t_, ptr %3, i32 0, i32 4
  %5 = load ptr, ptr %4, align 8, !tbaa !120
  %6 = call i32 @Vec_PtrSize(ptr noundef %5)
  ret i32 %6
}

; Function Attrs: nounwind uwtable
define i32 @Fra_SmlCheckNonConstOutputs(ptr noundef %0) #0 {
  %2 = alloca i32, align 4
  %3 = alloca ptr, align 8
  %4 = alloca ptr, align 8
  %5 = alloca i32, align 4
  %6 = alloca i32, align 4
  store ptr %0, ptr %3, align 8, !tbaa !35
  call void @llvm.lifetime.start.p0(i64 8, ptr %4) #8
  call void @llvm.lifetime.start.p0(i64 4, ptr %5) #8
  store i32 0, ptr %5, align 4, !tbaa !8
  br label %7

7:                                                ; preds = %36, %1
  %8 = load i32, ptr %5, align 4, !tbaa !8
  %9 = load ptr, ptr %3, align 8, !tbaa !35
  %10 = getelementptr inbounds nuw %struct.Fra_Sml_t_, ptr %9, i32 0, i32 0
  %11 = load ptr, ptr %10, align 8, !tbaa !94
  %12 = call i32 @Aig_ManCoNum(ptr noundef %11)
  %13 = load ptr, ptr %3, align 8, !tbaa !35
  %14 = getelementptr inbounds nuw %struct.Fra_Sml_t_, ptr %13, i32 0, i32 0
  %15 = load ptr, ptr %14, align 8, !tbaa !94
  %16 = call i32 @Aig_ManRegNum(ptr noundef %15)
  %17 = sub nsw i32 %12, %16
  %18 = icmp slt i32 %8, %17
  br i1 %18, label %19, label %27

19:                                               ; preds = %7
  %20 = load ptr, ptr %3, align 8, !tbaa !35
  %21 = getelementptr inbounds nuw %struct.Fra_Sml_t_, ptr %20, i32 0, i32 0
  %22 = load ptr, ptr %21, align 8, !tbaa !94
  %23 = getelementptr inbounds nuw %struct.Aig_Man_t_, ptr %22, i32 0, i32 3
  %24 = load ptr, ptr %23, align 8, !tbaa !89
  %25 = load i32, ptr %5, align 4, !tbaa !8
  %26 = call ptr @Vec_PtrEntry(ptr noundef %24, i32 noundef %25)
  store ptr %26, ptr %4, align 8, !tbaa !3
  br label %27

27:                                               ; preds = %19, %7
  %28 = phi i1 [ false, %7 ], [ true, %19 ]
  br i1 %28, label %29, label %39

29:                                               ; preds = %27
  %30 = load ptr, ptr %3, align 8, !tbaa !35
  %31 = load ptr, ptr %4, align 8, !tbaa !3
  %32 = call i32 @Fra_SmlNodeIsZero(ptr noundef %30, ptr noundef %31)
  %33 = icmp ne i32 %32, 0
  br i1 %33, label %35, label %34

34:                                               ; preds = %29
  store i32 1, ptr %2, align 4
  store i32 1, ptr %6, align 4
  br label %40

35:                                               ; preds = %29
  br label %36

36:                                               ; preds = %35
  %37 = load i32, ptr %5, align 4, !tbaa !8
  %38 = add nsw i32 %37, 1
  store i32 %38, ptr %5, align 4, !tbaa !8
  br label %7, !llvm.loop !118

39:                                               ; preds = %27
  store i32 0, ptr %2, align 4
  store i32 1, ptr %6, align 4
  br label %40

40:                                               ; preds = %39, %34
  call void @llvm.lifetime.end.p0(i64 4, ptr %5) #8
  call void @llvm.lifetime.end.p0(i64 8, ptr %4) #8
  %41 = load i32, ptr %2, align 4
  ret i32 %41
}

; Function Attrs: nounwind uwtable
define ptr @Fra_SmlStart(ptr noundef %0, i32 noundef %1, i32 noundef %2, i32 noundef %3) #0 {
  %5 = alloca ptr, align 8
  %6 = alloca i32, align 4
  %7 = alloca i32, align 4
  %8 = alloca i32, align 4
  %9 = alloca ptr, align 8
  store ptr %0, ptr %5, align 8, !tbaa !52
  store i32 %1, ptr %6, align 4, !tbaa !8
  store i32 %2, ptr %7, align 4, !tbaa !8
  store i32 %3, ptr %8, align 4, !tbaa !8
  call void @llvm.lifetime.start.p0(i64 8, ptr %9) #8
  %10 = load ptr, ptr %5, align 8, !tbaa !52
  %11 = call i32 @Aig_ManObjNumMax(ptr noundef %10)
  %12 = sext i32 %11 to i64
  %13 = mul i64 4, %12
  %14 = load i32, ptr %6, align 4, !tbaa !8
  %15 = load i32, ptr %7, align 4, !tbaa !8
  %16 = add nsw i32 %14, %15
  %17 = sext i32 %16 to i64
  %18 = mul i64 %13, %17
  %19 = load i32, ptr %8, align 4, !tbaa !8
  %20 = sext i32 %19 to i64
  %21 = mul i64 %18, %20
  %22 = add i64 40, %21
  %23 = mul i64 1, %22
  %24 = call noalias ptr @malloc(i64 noundef %23) #9
  store ptr %24, ptr %9, align 8, !tbaa !35
  %25 = load ptr, ptr %9, align 8, !tbaa !35
  %26 = load i32, ptr %6, align 4, !tbaa !8
  %27 = load i32, ptr %7, align 4, !tbaa !8
  %28 = add nsw i32 %26, %27
  %29 = sext i32 %28 to i64
  %30 = mul i64 4, %29
  %31 = load i32, ptr %8, align 4, !tbaa !8
  %32 = sext i32 %31 to i64
  %33 = mul i64 %30, %32
  %34 = add i64 40, %33
  call void @llvm.memset.p0.i64(ptr align 8 %25, i8 0, i64 %34, i1 false)
  %35 = load ptr, ptr %5, align 8, !tbaa !52
  %36 = load ptr, ptr %9, align 8, !tbaa !35
  %37 = getelementptr inbounds nuw %struct.Fra_Sml_t_, ptr %36, i32 0, i32 0
  store ptr %35, ptr %37, align 8, !tbaa !94
  %38 = load i32, ptr %6, align 4, !tbaa !8
  %39 = load ptr, ptr %9, align 8, !tbaa !35
  %40 = getelementptr inbounds nuw %struct.Fra_Sml_t_, ptr %39, i32 0, i32 1
  store i32 %38, ptr %40, align 8, !tbaa !141
  %41 = load i32, ptr %6, align 4, !tbaa !8
  %42 = load i32, ptr %7, align 4, !tbaa !8
  %43 = add nsw i32 %41, %42
  %44 = load ptr, ptr %9, align 8, !tbaa !35
  %45 = getelementptr inbounds nuw %struct.Fra_Sml_t_, ptr %44, i32 0, i32 2
  store i32 %43, ptr %45, align 4, !tbaa !98
  %46 = load i32, ptr %8, align 4, !tbaa !8
  %47 = load ptr, ptr %9, align 8, !tbaa !35
  %48 = getelementptr inbounds nuw %struct.Fra_Sml_t_, ptr %47, i32 0, i32 3
  store i32 %46, ptr %48, align 8, !tbaa !92
  %49 = load i32, ptr %6, align 4, !tbaa !8
  %50 = load i32, ptr %7, align 4, !tbaa !8
  %51 = add nsw i32 %49, %50
  %52 = load i32, ptr %8, align 4, !tbaa !8
  %53 = mul nsw i32 %51, %52
  %54 = load ptr, ptr %9, align 8, !tbaa !35
  %55 = getelementptr inbounds nuw %struct.Fra_Sml_t_, ptr %54, i32 0, i32 4
  store i32 %53, ptr %55, align 4, !tbaa !32
  %56 = load i32, ptr %6, align 4, !tbaa !8
  %57 = load i32, ptr %8, align 4, !tbaa !8
  %58 = mul nsw i32 %56, %57
  %59 = load ptr, ptr %9, align 8, !tbaa !35
  %60 = getelementptr inbounds nuw %struct.Fra_Sml_t_, ptr %59, i32 0, i32 5
  store i32 %58, ptr %60, align 8, !tbaa !30
  %61 = load ptr, ptr %9, align 8, !tbaa !35
  call void @llvm.lifetime.end.p0(i64 8, ptr %9) #8
  ret ptr %61
}

; Function Attrs: inlinehint nounwind uwtable
define internal i32 @Abc_BitWordNum(i32 noundef %0) #2 {
  %2 = alloca i32, align 4
  store i32 %0, ptr %2, align 4, !tbaa !8
  %3 = load i32, ptr %2, align 4, !tbaa !8
  %4 = ashr i32 %3, 5
  %5 = load i32, ptr %2, align 4, !tbaa !8
  %6 = and i32 %5, 31
  %7 = icmp sgt i32 %6, 0
  %8 = zext i1 %7 to i32
  %9 = add nsw i32 %4, %8
  ret i32 %9
}

; Function Attrs: inlinehint nounwind uwtable
define internal void @Vec_StrFree(ptr noundef %0) #2 {
  %2 = alloca ptr, align 8
  store ptr %0, ptr %2, align 8, !tbaa !145
  %3 = load ptr, ptr %2, align 8, !tbaa !145
  %4 = getelementptr inbounds nuw %struct.Vec_Str_t_, ptr %3, i32 0, i32 2
  %5 = load ptr, ptr %4, align 8, !tbaa !151
  %6 = icmp ne ptr %5, null
  br i1 %6, label %7, label %13

7:                                                ; preds = %1
  %8 = load ptr, ptr %2, align 8, !tbaa !145
  %9 = getelementptr inbounds nuw %struct.Vec_Str_t_, ptr %8, i32 0, i32 2
  %10 = load ptr, ptr %9, align 8, !tbaa !151
  call void @free(ptr noundef %10) #8
  %11 = load ptr, ptr %2, align 8, !tbaa !145
  %12 = getelementptr inbounds nuw %struct.Vec_Str_t_, ptr %11, i32 0, i32 2
  store ptr null, ptr %12, align 8, !tbaa !151
  br label %14

13:                                               ; preds = %1
  br label %14

14:                                               ; preds = %13, %7
  %15 = load ptr, ptr %2, align 8, !tbaa !145
  %16 = icmp ne ptr %15, null
  br i1 %16, label %17, label %19

17:                                               ; preds = %14
  %18 = load ptr, ptr %2, align 8, !tbaa !145
  call void @free(ptr noundef %18) #8
  store ptr null, ptr %2, align 8, !tbaa !145
  br label %20

19:                                               ; preds = %14
  br label %20

20:                                               ; preds = %19, %17
  ret void
}

; Function Attrs: inlinehint nounwind uwtable
define internal i32 @Aig_ManCiNum(ptr noundef %0) #2 {
  %2 = alloca ptr, align 8
  store ptr %0, ptr %2, align 8, !tbaa !52
  %3 = load ptr, ptr %2, align 8, !tbaa !52
  %4 = getelementptr inbounds nuw %struct.Aig_Man_t_, ptr %3, i32 0, i32 14
  %5 = getelementptr inbounds [7 x i32], ptr %4, i64 0, i64 2
  %6 = load i32, ptr %5, align 8, !tbaa !8
  ret i32 %6
}

; Function Attrs: inlinehint nounwind uwtable
define internal i32 @Vec_StrSize(ptr noundef %0) #2 {
  %2 = alloca ptr, align 8
  store ptr %0, ptr %2, align 8, !tbaa !145
  %3 = load ptr, ptr %2, align 8, !tbaa !145
  %4 = getelementptr inbounds nuw %struct.Vec_Str_t_, ptr %3, i32 0, i32 1
  %5 = load i32, ptr %4, align 4, !tbaa !148
  ret i32 %5
}

; Function Attrs: nounwind uwtable
define ptr @Fra_SmlSimulateCombGiven(ptr noundef %0, ptr noundef %1, i32 noundef %2, i32 noundef %3) #0 {
  %5 = alloca ptr, align 8
  %6 = alloca ptr, align 8
  %7 = alloca ptr, align 8
  %8 = alloca i32, align 4
  %9 = alloca i32, align 4
  %10 = alloca ptr, align 8
  %11 = alloca ptr, align 8
  %12 = alloca i32, align 4
  %13 = alloca i32, align 4
  store ptr %0, ptr %6, align 8, !tbaa !52
  store ptr %1, ptr %7, align 8, !tbaa !143
  store i32 %2, ptr %8, align 4, !tbaa !8
  store i32 %3, ptr %9, align 4, !tbaa !8
  call void @llvm.lifetime.start.p0(i64 8, ptr %10) #8
  call void @llvm.lifetime.start.p0(i64 8, ptr %11) #8
  call void @llvm.lifetime.start.p0(i64 4, ptr %12) #8
  %14 = load ptr, ptr %7, align 8, !tbaa !143
  %15 = call ptr @Fra_SmlSimulateReadFile(ptr noundef %14)
  store ptr %15, ptr %10, align 8, !tbaa !145
  %16 = load ptr, ptr %10, align 8, !tbaa !145
  %17 = icmp eq ptr %16, null
  br i1 %17, label %18, label %19

18:                                               ; preds = %4
  store ptr null, ptr %5, align 8
  store i32 1, ptr %13, align 4
  br label %67

19:                                               ; preds = %4
  %20 = load ptr, ptr %10, align 8, !tbaa !145
  %21 = call i32 @Vec_StrSize(ptr noundef %20)
  %22 = load ptr, ptr %6, align 8, !tbaa !52
  %23 = call i32 @Aig_ManCiNum(ptr noundef %22)
  %24 = srem i32 %21, %23
  %25 = icmp ne i32 %24, 0
  br i1 %25, label %26, label %34

26:                                               ; preds = %19
  %27 = load ptr, ptr %7, align 8, !tbaa !143
  %28 = load ptr, ptr %10, align 8, !tbaa !145
  %29 = call i32 @Vec_StrSize(ptr noundef %28)
  %30 = load ptr, ptr %6, align 8, !tbaa !52
  %31 = call i32 @Aig_ManCiNum(ptr noundef %30)
  %32 = call i32 (ptr, ...) @printf(ptr noundef @.str.9, ptr noundef %27, i32 noundef %29, i32 noundef %31)
  %33 = load ptr, ptr %10, align 8, !tbaa !145
  call void @Vec_StrFree(ptr noundef %33)
  store ptr null, ptr %5, align 8
  store i32 1, ptr %13, align 4
  br label %67

34:                                               ; preds = %19
  %35 = load ptr, ptr %6, align 8, !tbaa !52
  %36 = load ptr, ptr %10, align 8, !tbaa !145
  %37 = call i32 @Vec_StrSize(ptr noundef %36)
  %38 = load ptr, ptr %6, align 8, !tbaa !52
  %39 = call i32 @Aig_ManCiNum(ptr noundef %38)
  %40 = sdiv i32 %37, %39
  %41 = call i32 @Abc_BitWordNum(i32 noundef %40)
  %42 = call ptr @Fra_SmlStart(ptr noundef %35, i32 noundef 0, i32 noundef 1, i32 noundef %41)
  store ptr %42, ptr %11, align 8, !tbaa !35
  %43 = load ptr, ptr %11, align 8, !tbaa !35
  %44 = load ptr, ptr %10, align 8, !tbaa !145
  call void @Fra_SmlInitializeGiven(ptr noundef %43, ptr noundef %44)
  %45 = load ptr, ptr %10, align 8, !tbaa !145
  %46 = call i32 @Vec_StrSize(ptr noundef %45)
  %47 = load ptr, ptr %6, align 8, !tbaa !52
  %48 = call i32 @Aig_ManCiNum(ptr noundef %47)
  %49 = sdiv i32 %46, %48
  store i32 %49, ptr %12, align 4, !tbaa !8
  %50 = load ptr, ptr %10, align 8, !tbaa !145
  call void @Vec_StrFree(ptr noundef %50)
  %51 = load ptr, ptr %11, align 8, !tbaa !35
  call void @Fra_SmlSimulateOne(ptr noundef %51)
  %52 = load i32, ptr %8, align 4, !tbaa !8
  %53 = icmp ne i32 %52, 0
  br i1 %53, label %54, label %59

54:                                               ; preds = %34
  %55 = load ptr, ptr %11, align 8, !tbaa !35
  %56 = call i32 @Fra_SmlCheckNonConstOutputs(ptr noundef %55)
  %57 = load ptr, ptr %11, align 8, !tbaa !35
  %58 = getelementptr inbounds nuw %struct.Fra_Sml_t_, ptr %57, i32 0, i32 6
  store i32 %56, ptr %58, align 4, !tbaa !142
  br label %59

59:                                               ; preds = %54, %34
  %60 = load i32, ptr %9, align 4, !tbaa !8
  %61 = icmp ne i32 %60, 0
  br i1 %61, label %62, label %65

62:                                               ; preds = %59
  %63 = load ptr, ptr %11, align 8, !tbaa !35
  %64 = load i32, ptr %12, align 4, !tbaa !8
  call void @Fra_SmlPrintOutputs(ptr noundef %63, i32 noundef %64)
  br label %65

65:                                               ; preds = %62, %59
  %66 = load ptr, ptr %11, align 8, !tbaa !35
  store ptr %66, ptr %5, align 8
  store i32 1, ptr %13, align 4
  br label %67

67:                                               ; preds = %65, %26, %18
  call void @llvm.lifetime.end.p0(i64 4, ptr %12) #8
  call void @llvm.lifetime.end.p0(i64 8, ptr %11) #8
  call void @llvm.lifetime.end.p0(i64 8, ptr %10) #8
  %68 = load ptr, ptr %5, align 8
  ret ptr %68
}