; Function Attrs: nounwind uwtable
define noalias noundef ptr @Fra_SmlSimulateCombGiven(ptr noundef %0, ptr noundef %1, i32 noundef %2, i32 noundef %3) local_unnamed_addr #6 {
  %5 = tail call ptr @Fra_SmlSimulateReadFile(ptr noundef %1)
  %6 = icmp eq ptr %5, null
  br i1 %6, label %67, label %7

7:                                                ; preds = %4
  %8 = getelementptr i8, ptr %5, i64 4
  %.val33 = load i32, ptr %8, align 4, !tbaa !136
  %9 = getelementptr i8, ptr %0, i64 136
  %.val29 = load i32, ptr %9, align 8, !tbaa !28
  %10 = srem i32 %.val33, %.val29
  %11 = sdiv i32 %.val33, %.val29
  %.not = icmp eq i32 %10, 0
  br i1 %.not, label %17, label %12

12:                                               ; preds = %7
  %13 = tail call i32 (ptr, ...) @printf(ptr noundef nonnull dereferenceable(1) @.str.9, ptr noundef %1, i32 noundef %.val33, i32 noundef %.val29)
  %14 = getelementptr inbounds nuw i8, ptr %5, i64 8
  %15 = load ptr, ptr %14, align 8, !tbaa !139
  %.not.i = icmp eq ptr %15, null
  br i1 %.not.i, label %Vec_StrFree.exit, label %16

16:                                               ; preds = %12
  tail call void @free(ptr noundef nonnull %15) #22
  br label %Vec_StrFree.exit

Vec_StrFree.exit:                                 ; preds = %12, %16
  tail call void @free(ptr noundef nonnull %5) #22
  br label %67

17:                                               ; preds = %7
  %18 = ashr i32 %11, 5
  %19 = and i32 %11, 31
  %20 = icmp ne i32 %19, 0
  %21 = zext i1 %20 to i32
  %22 = add nsw i32 %18, %21
  %23 = getelementptr i8, ptr %0, i64 32
  %.val.i = load ptr, ptr %23, align 8, !tbaa !113
  %24 = getelementptr i8, ptr %.val.i, i64 4
  %.val.val.i = load i32, ptr %24, align 4, !tbaa !46
  %25 = sext i32 %.val.val.i to i64
  %26 = sext i32 %22 to i64
  %27 = shl nsw i64 %26, 2
  %28 = mul nsw i64 %27, %25
  %29 = add nsw i64 %28, 40
  %30 = tail call noalias ptr @malloc(i64 noundef %29) #21
  %31 = add nsw i64 %27, 40
  tail call void @llvm.memset.p0.i64(ptr align 8 %30, i8 0, i64 %31, i1 false)
  store ptr %0, ptr %30, align 8, !tbaa !85
  %32 = getelementptr inbounds nuw i8, ptr %30, i64 8
  store i32 0, ptr %32, align 8, !tbaa !134
  %33 = getelementptr inbounds nuw i8, ptr %30, i64 12
  store i32 1, ptr %33, align 4, !tbaa !90
  %34 = getelementptr inbounds nuw i8, ptr %30, i64 16
  store i32 %22, ptr %34, align 8, !tbaa !83
  %35 = getelementptr inbounds nuw i8, ptr %30, i64 20
  store i32 %22, ptr %35, align 4, !tbaa !25
  %36 = getelementptr inbounds nuw i8, ptr %30, i64 24
  store i32 0, ptr %36, align 8, !tbaa !27
  tail call void @Fra_SmlInitializeGiven(ptr noundef nonnull %30, ptr noundef nonnull %5)
  %37 = getelementptr inbounds nuw i8, ptr %5, i64 8
  %38 = load ptr, ptr %37, align 8, !tbaa !139
  %.not.i34 = icmp eq ptr %38, null
  br i1 %.not.i34, label %Vec_StrFree.exit35, label %39

39:                                               ; preds = %17
  tail call void @free(ptr noundef nonnull %38) #22
  br label %Vec_StrFree.exit35

Vec_StrFree.exit35:                               ; preds = %17, %39
  tail call void @free(ptr noundef nonnull %5) #22
  tail call void @Fra_SmlSimulateOne(ptr noundef nonnull %30)
  %.not25 = icmp eq i32 %2, 0
  br i1 %.not25, label %65, label %40

40:                                               ; preds = %Vec_StrFree.exit35
  %41 = load ptr, ptr %30, align 8, !tbaa !85
  %42 = getelementptr i8, ptr %41, i64 140
  %.val10.i = load i32, ptr %42, align 4, !tbaa !28
  %43 = getelementptr i8, ptr %41, i64 104
  %.val.i36 = load i32, ptr %43, align 8, !tbaa !39
  %44 = sub nsw i32 %.val10.i, %.val.i36
  %45 = icmp sgt i32 %44, 0
  br i1 %45, label %.lr.ph.i, label %Fra_SmlCheckNonConstOutputs.exit

.lr.ph.i:                                         ; preds = %40
  %46 = getelementptr inbounds nuw i8, ptr %41, i64 24
  %47 = load ptr, ptr %46, align 8, !tbaa !80
  %48 = getelementptr i8, ptr %47, i64 8
  %.val9.i = load ptr, ptr %48, align 8, !tbaa !51
  %49 = getelementptr inbounds nuw i8, ptr %30, i64 40
  %50 = load i32, ptr %35, align 4, !tbaa !25
  %51 = load i32, ptr %36, align 8, !tbaa !27
  %52 = icmp slt i32 %51, %50
  %53 = sext i32 %51 to i64
  br i1 %52, label %.lr.ph.preheader.i.us.preheader.i, label %Fra_SmlCheckNonConstOutputs.exit

.lr.ph.preheader.i.us.preheader.i:                ; preds = %.lr.ph.i
  %wide.trip.count.i = zext nneg i32 %44 to i64
  br label %.lr.ph.preheader.i.us.i

.lr.ph.preheader.i.us.i:                          ; preds = %.loopexit.us.i, %.lr.ph.preheader.i.us.preheader.i
  %indvars.iv.i = phi i64 [ 0, %.lr.ph.preheader.i.us.preheader.i ], [ %indvars.iv.next.i, %.loopexit.us.i ]
  %54 = getelementptr inbounds nuw ptr, ptr %.val9.i, i64 %indvars.iv.i
  %55 = load ptr, ptr %54, align 8, !tbaa !65
  %56 = getelementptr inbounds nuw i8, ptr %55, i64 36
  %57 = load i32, ptr %56, align 4, !tbaa !22
  %58 = mul nsw i32 %57, %50
  %59 = sext i32 %58 to i64
  %60 = getelementptr inbounds i32, ptr %49, i64 %59
  br label %.lr.ph.i.us.i

.lr.ph.i.us.i:                                    ; preds = %63, %.lr.ph.preheader.i.us.i
  %indvars.iv.i.us.i = phi i64 [ %53, %.lr.ph.preheader.i.us.i ], [ %indvars.iv.next.i.us.i, %63 ]
  %61 = getelementptr inbounds i32, ptr %60, i64 %indvars.iv.i.us.i
  %62 = load i32, ptr %61, align 4, !tbaa !28
  %.not.i.us.i = icmp eq i32 %62, 0
  br i1 %.not.i.us.i, label %63, label %Fra_SmlCheckNonConstOutputs.exit

63:                                               ; preds = %.lr.ph.i.us.i
  %indvars.iv.next.i.us.i = add nsw i64 %indvars.iv.i.us.i, 1
  %lftr.wideiv.i.us.i = trunc i64 %indvars.iv.next.i.us.i to i32
  %exitcond.not.i.us.i = icmp eq i32 %50, %lftr.wideiv.i.us.i
  br i1 %exitcond.not.i.us.i, label %.loopexit.us.i, label %.lr.ph.i.us.i, !llvm.loop !34

.loopexit.us.i:                                   ; preds = %63
  %indvars.iv.next.i = add nuw nsw i64 %indvars.iv.i, 1
  %exitcond.not.i = icmp eq i64 %indvars.iv.next.i, %wide.trip.count.i
  br i1 %exitcond.not.i, label %Fra_SmlCheckNonConstOutputs.exit, label %.lr.ph.preheader.i.us.i, !llvm.loop !109

Fra_SmlCheckNonConstOutputs.exit:                 ; preds = %.loopexit.us.i, %.lr.ph.i.us.i, %40, %.lr.ph.i
  %.08.i = phi i32 [ 0, %40 ], [ 0, %.lr.ph.i ], [ 1, %.lr.ph.i.us.i ], [ 0, %.loopexit.us.i ]
  %64 = getelementptr inbounds nuw i8, ptr %30, i64 28
  store i32 %.08.i, ptr %64, align 4, !tbaa !135
  br label %65

65:                                               ; preds = %Fra_SmlCheckNonConstOutputs.exit, %Vec_StrFree.exit35
  %.not26 = icmp eq i32 %3, 0
  br i1 %.not26, label %67, label %66

66:                                               ; preds = %65
  tail call void @Fra_SmlPrintOutputs(ptr noundef nonnull %30, i32 noundef %11)
  br label %67

67:                                               ; preds = %65, %66, %4, %Vec_StrFree.exit
  %.0 = phi ptr [ null, %Vec_StrFree.exit ], [ null, %4 ], [ %30, %66 ], [ %30, %65 ]
  ret ptr %.0
}